; Function Attrs: mustprogress uwtable
define internal void @_ZL36hb_font_get_glyph_h_advances_defaultP9hb_font_tPvjPKjjPijS1_(ptr noundef %0, ptr nocapture readnone %1, i32 noundef %2, ptr noundef %3, i32 noundef %4, ptr noundef %5, i32 noundef %6, ptr nocapture readnone %7) #1 {
  %9 = getelementptr inbounds i8, ptr %0, i64 144
  %10 = load ptr, ptr %9, align 8
  %11 = getelementptr inbounds i8, ptr %10, i64 72
  %12 = load ptr, ptr %11, align 8
  %13 = load ptr, ptr getelementptr inbounds (i8, ptr @_ZL22_hb_font_funcs_default, i64 72), align 8
  %.not = icmp eq ptr %12, %13
  br i1 %.not, label %33, label %.preheader

.preheader:                                       ; preds = %8
  %.not36 = icmp eq i32 %2, 0
  br i1 %.not36, label %.loopexit, label %.lr.ph

.lr.ph:                                           ; preds = %.preheader
  %14 = getelementptr inbounds i8, ptr %0, i64 152
  %15 = zext i32 %4 to i64
  %16 = zext i32 %6 to i64
  br label %17

17:                                               ; preds = %.lr.ph, %_ZN9hb_font_t19get_glyph_h_advanceEj.exit
  %.02432 = phi i32 [ 0, %.lr.ph ], [ %32, %_ZN9hb_font_t19get_glyph_h_advanceEj.exit ]
  %.02531 = phi ptr [ %3, %.lr.ph ], [ %30, %_ZN9hb_font_t19get_glyph_h_advanceEj.exit ]
  %.02630 = phi ptr [ %5, %.lr.ph ], [ %31, %_ZN9hb_font_t19get_glyph_h_advanceEj.exit ]
  %18 = load i32, ptr %.02531, align 4
  %19 = load ptr, ptr %9, align 8
  %20 = getelementptr inbounds i8, ptr %19, i64 72
  %21 = load ptr, ptr %20, align 8
  %22 = load ptr, ptr %14, align 8
  %23 = getelementptr inbounds i8, ptr %19, i64 16
  %24 = load ptr, ptr %23, align 8
  %.not.i = icmp eq ptr %24, null
  br i1 %.not.i, label %_ZN9hb_font_t19get_glyph_h_advanceEj.exit, label %25

25:                                               ; preds = %17
  %26 = getelementptr inbounds i8, ptr %24, i64 40
  %27 = load ptr, ptr %26, align 8
  br label %_ZN9hb_font_t19get_glyph_h_advanceEj.exit

_ZN9hb_font_t19get_glyph_h_advanceEj.exit:        ; preds = %17, %25
  %28 = phi ptr [ %27, %25 ], [ null, %17 ]
  %29 = tail call noundef i32 %21(ptr noundef nonnull %0, ptr noundef %22, i32 noundef %18, ptr noundef %28)
  store i32 %29, ptr %.02630, align 4
  %30 = getelementptr inbounds i8, ptr %.02531, i64 %15
  %31 = getelementptr inbounds i8, ptr %.02630, i64 %16
  %32 = add nuw i32 %.02432, 1
  %exitcond.not = icmp eq i32 %32, %2
  br i1 %exitcond.not, label %.loopexit, label %17, !llvm.loop !8

33:                                               ; preds = %8
  %34 = getelementptr inbounds i8, ptr %0, i64 24
  %35 = load ptr, ptr %34, align 8
  %36 = getelementptr inbounds i8, ptr %35, i64 144
  %37 = load ptr, ptr %36, align 8
  %38 = getelementptr inbounds i8, ptr %37, i64 88
  %39 = load ptr, ptr %38, align 8
  %40 = getelementptr inbounds i8, ptr %35, i64 152
  %41 = load ptr, ptr %40, align 8
  %42 = getelementptr inbounds i8, ptr %37, i64 16
  %43 = load ptr, ptr %42, align 8
  %.not.i27 = icmp eq ptr %43, null
  br i1 %.not.i27, label %_ZN9hb_font_t20get_glyph_h_advancesEjPKjjPij.exit, label %44

44:                                               ; preds = %33
  %45 = getelementptr inbounds i8, ptr %43, i64 56
  %46 = load ptr, ptr %45, align 8
  br label %_ZN9hb_font_t20get_glyph_h_advancesEjPKjjPij.exit

_ZN9hb_font_t20get_glyph_h_advancesEjPKjjPij.exit: ; preds = %33, %44
  %47 = phi ptr [ %46, %44 ], [ null, %33 ]
  tail call void %39(ptr noundef nonnull %35, ptr noundef %41, i32 noundef %2, ptr noundef %3, i32 noundef %4, ptr noundef %5, i32 noundef %6, ptr noundef %47)
  %.not37 = icmp eq i32 %2, 0
  br i1 %.not37, label %.loopexit, label %.lr.ph35

.lr.ph35:                                         ; preds = %_ZN9hb_font_t20get_glyph_h_advancesEjPKjjPij.exit
  %48 = getelementptr inbounds i8, ptr %0, i64 40
  %49 = zext i32 %6 to i64
  br label %50

50:                                               ; preds = %.lr.ph35, %_ZN9hb_font_t23parent_scale_x_distanceEi.exit
  %.034 = phi i32 [ 0, %.lr.ph35 ], [ %65, %_ZN9hb_font_t23parent_scale_x_distanceEi.exit ]
  %.133 = phi ptr [ %5, %.lr.ph35 ], [ %64, %_ZN9hb_font_t23parent_scale_x_distanceEi.exit ]
  %51 = load i32, ptr %.133, align 4
  %52 = load ptr, ptr %34, align 8
  %.not.i28 = icmp eq ptr %52, null
  br i1 %.not.i28, label %_ZN9hb_font_t23parent_scale_x_distanceEi.exit, label %53

53:                                               ; preds = %50
  %54 = getelementptr inbounds i8, ptr %52, i64 40
  %55 = load i32, ptr %54, align 8
  %56 = load i32, ptr %48, align 8
  %.not6.i = icmp eq i32 %55, %56
  br i1 %.not6.i, label %_ZN9hb_font_t23parent_scale_x_distanceEi.exit, label %57

57:                                               ; preds = %53
  %58 = sext i32 %51 to i64
  %59 = sext i32 %56 to i64
  %60 = mul nsw i64 %59, %58
  %61 = sext i32 %55 to i64
  %62 = sdiv i64 %60, %61
  %63 = trunc i64 %62 to i32
  br label %_ZN9hb_font_t23parent_scale_x_distanceEi.exit

_ZN9hb_font_t23parent_scale_x_distanceEi.exit:    ; preds = %50, %53, %57
  %.0.i = phi i32 [ %63, %57 ], [ %51, %53 ], [ %51, %50 ]
  store i32 %.0.i, ptr %.133, align 4
  %64 = getelementptr inbounds i8, ptr %.133, i64 %49
  %65 = add nuw i32 %.034, 1
  %exitcond39.not = icmp eq i32 %65, %2
  br i1 %exitcond39.not, label %.loopexit, label %50, !llvm.loop !9

.loopexit:                                        ; preds = %_ZN9hb_font_t19get_glyph_h_advanceEj.exit, %_ZN9hb_font_t23parent_scale_x_distanceEi.exit, %.preheader, %_ZN9hb_font_t20get_glyph_h_advancesEjPKjjPij.exit
  ret void
}